target datalayout = "e-m:e-p270:32:32-p271:32:32-p272:64:64-i64:64-i128:128-f80:128-n8:16:32:64-S128"
target triple = "x86_64-pc-linux-gnu"

@sbox = internal global [256 x i8] zeroinitializer, align 16
@dec_multbl = internal global [4 x [256 x i32]] zeroinitializer, align 16
@inv_sbox = internal global [256 x i8] zeroinitializer, align 16
@enc_multbl = internal global [4 x [256 x i32]] zeroinitializer, align 16

; Function Attrs: cold nounwind optsize uwtable
define internal void @aes_init_static() #3 {
  %1 = alloca [256 x i8], align 16
  %2 = alloca [512 x i8], align 16
  %3 = alloca i32, align 4
  %4 = alloca i32, align 4
  %5 = alloca [4 x i32], align 4
  %6 = alloca [4 x i32], align 4
  call void @llvm.lifetime.start.p0(i64 256, ptr %1) #6
  call void @llvm.lifetime.start.p0(i64 512, ptr %2) #6
  call void @llvm.lifetime.start.p0(i64 4, ptr %3) #6
  call void @llvm.lifetime.start.p0(i64 4, ptr %4) #6
  store i32 1, ptr %4, align 4, !tbaa !11
  store i32 0, ptr %3, align 4, !tbaa !11
  br label %7

7:                                                ; preds = %36, %0
  %8 = load i32, ptr %3, align 4, !tbaa !11
  %9 = icmp slt i32 %8, 255
  br i1 %9, label %10, label %39

10:                                               ; preds = %7
  %11 = load i32, ptr %4, align 4, !tbaa !11
  %12 = trunc i32 %11 to i8
  %13 = load i32, ptr %3, align 4, !tbaa !11
  %14 = add nsw i32 %13, 255
  %15 = sext i32 %14 to i64
  %16 = getelementptr inbounds [512 x i8], ptr %2, i64 0, i64 %15
  store i8 %12, ptr %16, align 1, !tbaa !16
  %17 = load i32, ptr %3, align 4, !tbaa !11
  %18 = sext i32 %17 to i64
  %19 = getelementptr inbounds [512 x i8], ptr %2, i64 0, i64 %18
  store i8 %12, ptr %19, align 1, !tbaa !16
  %20 = load i32, ptr %3, align 4, !tbaa !11
  %21 = trunc i32 %20 to i8
  %22 = load i32, ptr %4, align 4, !tbaa !11
  %23 = sext i32 %22 to i64
  %24 = getelementptr inbounds [256 x i8], ptr %1, i64 0, i64 %23
  store i8 %21, ptr %24, align 1, !tbaa !16
  %25 = load i32, ptr %4, align 4, !tbaa !11
  %26 = load i32, ptr %4, align 4, !tbaa !11
  %27 = add nsw i32 %25, %26
  %28 = load i32, ptr %4, align 4, !tbaa !11
  %29 = xor i32 %28, %27
  store i32 %29, ptr %4, align 4, !tbaa !11
  %30 = load i32, ptr %4, align 4, !tbaa !11
  %31 = icmp sgt i32 %30, 255
  br i1 %31, label %32, label %35

32:                                               ; preds = %10
  %33 = load i32, ptr %4, align 4, !tbaa !11
  %34 = xor i32 %33, 283
  store i32 %34, ptr %4, align 4, !tbaa !11
  br label %35

35:                                               ; preds = %32, %10
  br label %36

36:                                               ; preds = %35
  %37 = load i32, ptr %3, align 4, !tbaa !11
  %38 = add nsw i32 %37, 1
  store i32 %38, ptr %3, align 4, !tbaa !11
  br label %7, !llvm.loop !28

39:                                               ; preds = %7
  store i32 0, ptr %3, align 4, !tbaa !11
  br label %40

40:                                               ; preds = %89, %39
  %41 = load i32, ptr %3, align 4, !tbaa !11
  %42 = icmp slt i32 %41, 256
  br i1 %42, label %43, label %92

43:                                               ; preds = %40
  %44 = load i32, ptr %3, align 4, !tbaa !11
  %45 = icmp ne i32 %44, 0
  br i1 %45, label %46, label %57

46:                                               ; preds = %43
  %47 = load i32, ptr %3, align 4, !tbaa !11
  %48 = sext i32 %47 to i64
  %49 = getelementptr inbounds [256 x i8], ptr %1, i64 0, i64 %48
  %50 = load i8, ptr %49, align 1, !tbaa !16
  %51 = zext i8 %50 to i32
  %52 = sub nsw i32 255, %51
  %53 = sext i32 %52 to i64
  %54 = getelementptr inbounds [512 x i8], ptr %2, i64 0, i64 %53
  %55 = load i8, ptr %54, align 1, !tbaa !16
  %56 = zext i8 %55 to i32
  br label %58

57:                                               ; preds = %43
  br label %58

58:                                               ; preds = %57, %46
  %59 = phi i32 [ %56, %46 ], [ 0, %57 ]
  store i32 %59, ptr %4, align 4, !tbaa !11
  %60 = load i32, ptr %4, align 4, !tbaa !11
  %61 = shl i32 %60, 1
  %62 = load i32, ptr %4, align 4, !tbaa !11
  %63 = shl i32 %62, 2
  %64 = xor i32 %61, %63
  %65 = load i32, ptr %4, align 4, !tbaa !11
  %66 = shl i32 %65, 3
  %67 = xor i32 %64, %66
  %68 = load i32, ptr %4, align 4, !tbaa !11
  %69 = shl i32 %68, 4
  %70 = xor i32 %67, %69
  %71 = load i32, ptr %4, align 4, !tbaa !11
  %72 = xor i32 %71, %70
  store i32 %72, ptr %4, align 4, !tbaa !11
  %73 = load i32, ptr %4, align 4, !tbaa !11
  %74 = load i32, ptr %4, align 4, !tbaa !11
  %75 = ashr i32 %74, 8
  %76 = xor i32 %73, %75
  %77 = xor i32 %76, 99
  %78 = and i32 %77, 255
  store i32 %78, ptr %4, align 4, !tbaa !11
  %79 = load i32, ptr %3, align 4, !tbaa !11
  %80 = trunc i32 %79 to i8
  %81 = load i32, ptr %4, align 4, !tbaa !11
  %82 = sext i32 %81 to i64
  %83 = getelementptr inbounds [256 x i8], ptr @inv_sbox, i64 0, i64 %82
  store i8 %80, ptr %83, align 1, !tbaa !16
  %84 = load i32, ptr %4, align 4, !tbaa !11
  %85 = trunc i32 %84 to i8
  %86 = load i32, ptr %3, align 4, !tbaa !11
  %87 = sext i32 %86 to i64
  %88 = getelementptr inbounds [256 x i8], ptr @sbox, i64 0, i64 %87
  store i8 %85, ptr %88, align 1, !tbaa !16
  br label %89

89:                                               ; preds = %58
  %90 = load i32, ptr %3, align 4, !tbaa !11
  %91 = add nsw i32 %90, 1
  store i32 %91, ptr %3, align 4, !tbaa !11
  br label %40, !llvm.loop !29

92:                                               ; preds = %40
  store i32 14, ptr %5, align 4, !tbaa !11
  %93 = getelementptr inbounds i32, ptr %5, i64 1
  store i32 9, ptr %93, align 4, !tbaa !11
  %94 = getelementptr inbounds i32, ptr %5, i64 2
  store i32 13, ptr %94, align 4, !tbaa !11
  %95 = getelementptr inbounds i32, ptr %5, i64 3
  store i32 11, ptr %95, align 4, !tbaa !11
  %96 = getelementptr inbounds [4 x i32], ptr %5, i64 0, i64 0
  %97 = getelementptr inbounds [256 x i8], ptr %1, i64 0, i64 0
  %98 = getelementptr inbounds [512 x i8], ptr %2, i64 0, i64 0
  call void @init_multbl2(ptr noundef @dec_multbl, ptr noundef %96, ptr noundef %97, ptr noundef %98, ptr noundef @inv_sbox)
  store i32 2, ptr %6, align 4, !tbaa !11
  %99 = getelementptr inbounds i32, ptr %6, i64 1
  store i32 1, ptr %99, align 4, !tbaa !11
  %100 = getelementptr inbounds i32, ptr %6, i64 2
  store i32 1, ptr %100, align 4, !tbaa !11
  %101 = getelementptr inbounds i32, ptr %6, i64 3
  store i32 3, ptr %101, align 4, !tbaa !11
  %102 = getelementptr inbounds [4 x i32], ptr %6, i64 0, i64 0
  %103 = getelementptr inbounds [256 x i8], ptr %1, i64 0, i64 0
  %104 = getelementptr inbounds [512 x i8], ptr %2, i64 0, i64 0
  call void @init_multbl2(ptr noundef @enc_multbl, ptr noundef %102, ptr noundef %103, ptr noundef %104, ptr noundef @sbox)
  call void @llvm.lifetime.end.p0(i64 4, ptr %4) #6
  call void @llvm.lifetime.end.p0(i64 4, ptr %3) #6
  call void @llvm.lifetime.end.p0(i64 512, ptr %2) #6
  call void @llvm.lifetime.end.p0(i64 256, ptr %1) #6
  ret void
}