; Function Attrs: cold nofree norecurse nosync nounwind optsize memory(readwrite, argmem: none, inaccessiblemem: none) uwtable
define internal void @aes_init_static() #4 {
  %1 = alloca [256 x i8], align 16
  %2 = alloca [512 x i8], align 16
  %3 = alloca [4 x i32], align 4
  %4 = alloca [4 x i32], align 4
  call void @llvm.lifetime.start.p0(i64 256, ptr nonnull %1) #9
  call void @llvm.lifetime.start.p0(i64 512, ptr nonnull %2) #9
  br label %5

5:                                                ; preds = %0, %5
  %indvars.iv = phi i64 [ 0, %0 ], [ %indvars.iv.next, %5 ]
  %.032 = phi i32 [ 1, %0 ], [ %spec.select, %5 ]
  %6 = trunc i32 %.032 to i8
  %7 = add nuw nsw i64 %indvars.iv, 255
  %8 = getelementptr inbounds nuw [512 x i8], ptr %2, i64 0, i64 %7
  store i8 %6, ptr %8, align 1, !tbaa !11
  %9 = getelementptr inbounds nuw [512 x i8], ptr %2, i64 0, i64 %indvars.iv
  store i8 %6, ptr %9, align 1, !tbaa !11
  %10 = trunc i64 %indvars.iv to i8
  %11 = sext i32 %.032 to i64
  %12 = getelementptr inbounds [256 x i8], ptr %1, i64 0, i64 %11
  store i8 %10, ptr %12, align 1, !tbaa !11
  %13 = shl nsw i32 %.032, 1
  %14 = xor i32 %13, %.032
  %15 = icmp sgt i32 %14, 255
  %16 = xor i32 %14, 283
  %spec.select = select i1 %15, i32 %16, i32 %14
  %indvars.iv.next = add nuw nsw i64 %indvars.iv, 1
  %exitcond.not = icmp eq i64 %indvars.iv.next, 255
  br i1 %exitcond.not, label %.preheader, label %5, !llvm.loop !24

.preheader:                                       ; preds = %5, %25
  %indvars.iv35 = phi i64 [ %indvars.iv.next36, %25 ], [ 0, %5 ]
  %.not = icmp eq i64 %indvars.iv35, 0
  br i1 %.not, label %25, label %17

17:                                               ; preds = %.preheader
  %18 = getelementptr inbounds nuw [256 x i8], ptr %1, i64 0, i64 %indvars.iv35
  %19 = load i8, ptr %18, align 1, !tbaa !11
  %20 = xor i8 %19, -1
  %21 = zext i8 %20 to i64
  %22 = getelementptr inbounds nuw [512 x i8], ptr %2, i64 0, i64 %21
  %23 = load i8, ptr %22, align 1, !tbaa !11
  %24 = zext i8 %23 to i32
  br label %25

25:                                               ; preds = %.preheader, %17
  %26 = phi i32 [ %24, %17 ], [ 0, %.preheader ]
  %27 = shl nuw nsw i32 %26, 1
  %28 = shl nuw nsw i32 %26, 2
  %29 = xor i32 %27, %28
  %30 = shl nuw nsw i32 %26, 3
  %31 = xor i32 %29, %30
  %32 = shl nuw nsw i32 %26, 4
  %33 = xor i32 %31, %32
  %34 = lshr i32 %33, 8
  %35 = xor i32 %34, %33
  %.masked = and i32 %35, 255
  %36 = xor i32 %26, %.masked
  %37 = xor i32 %36, 99
  %38 = trunc i64 %indvars.iv35 to i8
  %39 = zext nneg i32 %37 to i64
  %40 = getelementptr inbounds nuw [256 x i8], ptr @inv_sbox, i64 0, i64 %39
  store i8 %38, ptr %40, align 1, !tbaa !11
  %41 = trunc nuw i32 %37 to i8
  %42 = getelementptr inbounds nuw [256 x i8], ptr @sbox, i64 0, i64 %indvars.iv35
  store i8 %41, ptr %42, align 1, !tbaa !11
  %indvars.iv.next36 = add nuw nsw i64 %indvars.iv35, 1
  %exitcond38.not = icmp eq i64 %indvars.iv.next36, 256
  br i1 %exitcond38.not, label %43, label %.preheader, !llvm.loop !25

43:                                               ; preds = %25
  store i32 14, ptr %3, align 4, !tbaa !18
  %44 = getelementptr inbounds nuw i8, ptr %3, i64 4
  store i32 9, ptr %44, align 4, !tbaa !18
  %45 = getelementptr inbounds nuw i8, ptr %3, i64 8
  store i32 13, ptr %45, align 4, !tbaa !18
  %46 = getelementptr inbounds nuw i8, ptr %3, i64 12
  store i32 11, ptr %46, align 4, !tbaa !18
  call fastcc void @init_multbl2(ptr noundef nonnull @dec_multbl, ptr noundef %3, ptr noundef %1, ptr noundef %2, ptr noundef nonnull @inv_sbox)
  store i32 2, ptr %4, align 4, !tbaa !18
  %47 = getelementptr inbounds nuw i8, ptr %4, i64 4
  store i32 1, ptr %47, align 4, !tbaa !18
  %48 = getelementptr inbounds nuw i8, ptr %4, i64 8
  store i32 1, ptr %48, align 4, !tbaa !18
  %49 = getelementptr inbounds nuw i8, ptr %4, i64 12
  store i32 3, ptr %49, align 4, !tbaa !18
  call fastcc void @init_multbl2(ptr noundef nonnull @enc_multbl, ptr noundef %4, ptr noundef %1, ptr noundef %2, ptr noundef nonnull @sbox)
  call void @llvm.lifetime.end.p0(i64 512, ptr nonnull %2) #9
  call void @llvm.lifetime.end.p0(i64 256, ptr nonnull %1) #9
  ret void
}